; Function Attrs: mustprogress nofree norecurse nosync nounwind willreturn memory(argmem: write) uwtable
define range(i32 -98, 1) i32 @sp_set(ptr noundef writeonly captures(address_is_null) %0, i64 noundef %1) local_unnamed_addr #0 {
  %.not = icmp eq ptr %0, null
  br i1 %.not, label %7, label %3

3:                                                ; preds = %2
  %4 = getelementptr inbounds nuw i8, ptr %0, i64 8
  store i64 %1, ptr %4, align 8, !tbaa !8
  %5 = icmp ne i64 %1, 0
  %6 = zext i1 %5 to i16
  store i16 %6, ptr %0, align 8, !tbaa !3
  br label %7

7:                                                ; preds = %3, %2
  %spec.store.select = phi i32 [ 0, %3 ], [ -98, %2 ]
  ret i32 %spec.store.select
}